target datalayout = "e-m:e-p270:32:32-p271:32:32-p272:64:64-i64:64-i128:128-f80:128-n8:16:32:64-S128"
target triple = "x86_64-pc-linux-gnu"

%struct.BigInt = type { i32, [546 x i8] }

@.str = private unnamed_addr constant [30 x i8] c"Assertion %s failed at %s:%d\0A\00", align 1
@.str.1 = private unnamed_addr constant [18 x i8] c"b->nb_words < 546\00", align 1
@.str.2 = private unnamed_addr constant [19 x i8] c"libavcodec/xface.c\00", align 1

; Function Attrs: nounwind uwtable
define void @ff_big_mul(ptr noundef %0, i8 noundef zeroext %1) #0 {
  %3 = alloca ptr, align 8
  %4 = alloca i8, align 1
  %5 = alloca i32, align 4
  %6 = alloca ptr, align 8
  %7 = alloca i16, align 2
  %8 = alloca i32, align 4
  store ptr %0, ptr %3, align 8, !tbaa !4
  store i8 %1, ptr %4, align 1, !tbaa !8
  call void @llvm.lifetime.start.p0(i64 4, ptr %5) #4
  call void @llvm.lifetime.start.p0(i64 8, ptr %6) #4
  call void @llvm.lifetime.start.p0(i64 2, ptr %7) #4
  %9 = load i8, ptr %4, align 1, !tbaa !8
  %10 = zext i8 %9 to i32
  %11 = and i32 %10, 255
  %12 = trunc i32 %11 to i8
  store i8 %12, ptr %4, align 1, !tbaa !8
  %13 = load i8, ptr %4, align 1, !tbaa !8
  %14 = zext i8 %13 to i32
  %15 = icmp eq i32 %14, 1
  br i1 %15, label %21, label %16

16:                                               ; preds = %2
  %17 = load ptr, ptr %3, align 8, !tbaa !4
  %18 = getelementptr inbounds nuw %struct.BigInt, ptr %17, i32 0, i32 0
  %19 = load i32, ptr %18, align 4, !tbaa !15
  %20 = icmp eq i32 %19, 0
  br i1 %20, label %21, label %22

21:                                               ; preds = %16, %2
  store i32 1, ptr %8, align 4
  br label %116

22:                                               ; preds = %16
  %23 = load i8, ptr %4, align 1, !tbaa !8
  %24 = zext i8 %23 to i32
  %25 = icmp eq i32 %24, 0
  br i1 %25, label %26, label %59

26:                                               ; preds = %22
  br label %27

27:                                               ; preds = %26
  %28 = load ptr, ptr %3, align 8, !tbaa !4
  %29 = getelementptr inbounds nuw %struct.BigInt, ptr %28, i32 0, i32 0
  %30 = load i32, ptr %29, align 4, !tbaa !15
  %31 = icmp slt i32 %30, 546
  br i1 %31, label %33, label %32

32:                                               ; preds = %27
  call void (ptr, i32, ptr, ...) @av_log(ptr noundef null, i32 noundef 0, ptr noundef @.str, ptr noundef @.str.1, ptr noundef @.str.2, i32 noundef 104)
  call void @abort() #5
  unreachable

33:                                               ; preds = %27
  br label %34

34:                                               ; preds = %33
  br label %35

35:                                               ; preds = %34
  %36 = load ptr, ptr %3, align 8, !tbaa !4
  %37 = getelementptr inbounds nuw %struct.BigInt, ptr %36, i32 0, i32 0
  %38 = load i32, ptr %37, align 4, !tbaa !15
  %39 = add nsw i32 %38, 1
  store i32 %39, ptr %37, align 4, !tbaa !15
  store i32 %38, ptr %5, align 4, !tbaa !13
  %40 = load ptr, ptr %3, align 8, !tbaa !4
  %41 = getelementptr inbounds nuw %struct.BigInt, ptr %40, i32 0, i32 1
  %42 = getelementptr inbounds [546 x i8], ptr %41, i64 0, i64 0
  %43 = load i32, ptr %5, align 4, !tbaa !13
  %44 = sext i32 %43 to i64
  %45 = getelementptr inbounds i8, ptr %42, i64 %44
  store ptr %45, ptr %6, align 8, !tbaa !9
  br label %46

46:                                               ; preds = %50, %35
  %47 = load i32, ptr %5, align 4, !tbaa !13
  %48 = add nsw i32 %47, -1
  store i32 %48, ptr %5, align 4, !tbaa !13
  %49 = icmp ne i32 %47, 0
  br i1 %49, label %50, label %57

50:                                               ; preds = %46
  %51 = load ptr, ptr %6, align 8, !tbaa !9
  %52 = getelementptr inbounds i8, ptr %51, i64 -1
  %53 = load i8, ptr %52, align 1, !tbaa !8
  %54 = load ptr, ptr %6, align 8, !tbaa !9
  store i8 %53, ptr %54, align 1, !tbaa !8
  %55 = load ptr, ptr %6, align 8, !tbaa !9
  %56 = getelementptr inbounds i8, ptr %55, i32 -1
  store ptr %56, ptr %6, align 8, !tbaa !9
  br label %46, !llvm.loop !21

57:                                               ; preds = %46
  %58 = load ptr, ptr %6, align 8, !tbaa !9
  store i8 0, ptr %58, align 1, !tbaa !8
  store i32 1, ptr %8, align 4
  br label %116

59:                                               ; preds = %22
  %60 = load ptr, ptr %3, align 8, !tbaa !4
  %61 = getelementptr inbounds nuw %struct.BigInt, ptr %60, i32 0, i32 0
  %62 = load i32, ptr %61, align 4, !tbaa !15
  store i32 %62, ptr %5, align 4, !tbaa !13
  %63 = load ptr, ptr %3, align 8, !tbaa !4
  %64 = getelementptr inbounds nuw %struct.BigInt, ptr %63, i32 0, i32 1
  %65 = getelementptr inbounds [546 x i8], ptr %64, i64 0, i64 0
  store ptr %65, ptr %6, align 8, !tbaa !9
  store i16 0, ptr %7, align 2, !tbaa !11
  br label %66

66:                                               ; preds = %70, %59
  %67 = load i32, ptr %5, align 4, !tbaa !13
  %68 = add nsw i32 %67, -1
  store i32 %68, ptr %5, align 4, !tbaa !13
  %69 = icmp ne i32 %67, 0
  br i1 %69, label %70, label %93

70:                                               ; preds = %66
  %71 = load ptr, ptr %6, align 8, !tbaa !9
  %72 = load i8, ptr %71, align 1, !tbaa !8
  %73 = zext i8 %72 to i16
  %74 = zext i16 %73 to i32
  %75 = load i8, ptr %4, align 1, !tbaa !8
  %76 = zext i8 %75 to i16
  %77 = zext i16 %76 to i32
  %78 = mul nsw i32 %74, %77
  %79 = load i16, ptr %7, align 2, !tbaa !11
  %80 = zext i16 %79 to i32
  %81 = add nsw i32 %80, %78
  %82 = trunc i32 %81 to i16
  store i16 %82, ptr %7, align 2, !tbaa !11
  %83 = load i16, ptr %7, align 2, !tbaa !11
  %84 = zext i16 %83 to i32
  %85 = and i32 %84, 255
  %86 = trunc i32 %85 to i8
  %87 = load ptr, ptr %6, align 8, !tbaa !9
  %88 = getelementptr inbounds nuw i8, ptr %87, i32 1
  store ptr %88, ptr %6, align 8, !tbaa !9
  store i8 %86, ptr %87, align 1, !tbaa !8
  %89 = load i16, ptr %7, align 2, !tbaa !11
  %90 = zext i16 %89 to i32
  %91 = ashr i32 %90, 8
  %92 = trunc i32 %91 to i16
  store i16 %92, ptr %7, align 2, !tbaa !11
  br label %66, !llvm.loop !22

93:                                               ; preds = %66
  %94 = load i16, ptr %7, align 2, !tbaa !11
  %95 = icmp ne i16 %94, 0
  br i1 %95, label %96, label %115

96:                                               ; preds = %93
  br label %97

97:                                               ; preds = %96
  %98 = load ptr, ptr %3, align 8, !tbaa !4
  %99 = getelementptr inbounds nuw %struct.BigInt, ptr %98, i32 0, i32 0
  %100 = load i32, ptr %99, align 4, !tbaa !15
  %101 = icmp slt i32 %100, 546
  br i1 %101, label %103, label %102

102:                                              ; preds = %97
  call void (ptr, i32, ptr, ...) @av_log(ptr noundef null, i32 noundef 0, ptr noundef @.str, ptr noundef @.str.1, ptr noundef @.str.2, i32 noundef 123)
  call void @abort() #5
  unreachable

103:                                              ; preds = %97
  br label %104

104:                                              ; preds = %103
  br label %105

105:                                              ; preds = %104
  %106 = load ptr, ptr %3, align 8, !tbaa !4
  %107 = getelementptr inbounds nuw %struct.BigInt, ptr %106, i32 0, i32 0
  %108 = load i32, ptr %107, align 4, !tbaa !15
  %109 = add nsw i32 %108, 1
  store i32 %109, ptr %107, align 4, !tbaa !15
  %110 = load i16, ptr %7, align 2, !tbaa !11
  %111 = zext i16 %110 to i32
  %112 = and i32 %111, 255
  %113 = trunc i32 %112 to i8
  %114 = load ptr, ptr %6, align 8, !tbaa !9
  store i8 %113, ptr %114, align 1, !tbaa !8
  br label %115

115:                                              ; preds = %105, %93
  store i32 0, ptr %8, align 4
  br label %116

116:                                              ; preds = %115, %57, %21
  call void @llvm.lifetime.end.p0(i64 2, ptr %7) #4
  call void @llvm.lifetime.end.p0(i64 8, ptr %6) #4
  call void @llvm.lifetime.end.p0(i64 4, ptr %5) #4
  %117 = load i32, ptr %8, align 4
  switch i32 %117, label %119 [
    i32 0, label %118
    i32 1, label %118
  ]

118:                                              ; preds = %116, %116
  ret void

119:                                              ; preds = %116
  unreachable
}