; Function Attrs: nounwind uwtable
define void @ff_big_mul(ptr noundef captures(none) %0, i8 noundef zeroext %1) local_unnamed_addr #0 {
  %3 = icmp eq i8 %1, 1
  br i1 %3, label %42, label %4

4:                                                ; preds = %2
  %5 = load i32, ptr %0, align 4, !tbaa !4
  %6 = icmp eq i32 %5, 0
  br i1 %6, label %42, label %7

7:                                                ; preds = %4
  %8 = icmp eq i8 %1, 0
  br i1 %8, label %9, label %22

9:                                                ; preds = %7
  %10 = icmp slt i32 %5, 546
  br i1 %10, label %12, label %11

11:                                               ; preds = %9
  tail call void (ptr, i32, ptr, ...) @av_log(ptr noundef null, i32 noundef 0, ptr noundef nonnull @.str, ptr noundef nonnull @.str.1, ptr noundef nonnull @.str.2, i32 noundef 104) #5
  tail call void @abort() #6
  unreachable

12:                                               ; preds = %9
  %13 = add nsw i32 %5, 1
  store i32 %13, ptr %0, align 4, !tbaa !4
  %14 = getelementptr inbounds nuw i8, ptr %0, i64 4
  %15 = sext i32 %5 to i64
  %16 = getelementptr inbounds i8, ptr %14, i64 %15
  br label %17

17:                                               ; preds = %12, %17
  %.02638 = phi ptr [ %16, %12 ], [ %19, %17 ]
  %.02737 = phi i32 [ %5, %12 ], [ %18, %17 ]
  %18 = add nsw i32 %.02737, -1
  %19 = getelementptr inbounds i8, ptr %.02638, i64 -1
  %20 = load i8, ptr %19, align 1, !tbaa !9
  store i8 %20, ptr %.02638, align 1, !tbaa !9
  %.not33 = icmp eq i32 %18, 0
  br i1 %.not33, label %21, label %17, !llvm.loop !13

21:                                               ; preds = %17
  store i8 0, ptr %19, align 1, !tbaa !9
  br label %42

22:                                               ; preds = %7
  %23 = getelementptr inbounds nuw i8, ptr %0, i64 4
  %24 = zext i8 %1 to i16
  br label %25

25:                                               ; preds = %22, %25
  %.036 = phi i16 [ 0, %22 ], [ %33, %25 ]
  %.135 = phi ptr [ %23, %22 ], [ %32, %25 ]
  %.12834 = phi i32 [ %5, %22 ], [ %26, %25 ]
  %26 = add nsw i32 %.12834, -1
  %27 = load i8, ptr %.135, align 1, !tbaa !9
  %28 = zext i8 %27 to i16
  %29 = mul nuw i16 %28, %24
  %30 = add nuw i16 %29, %.036
  %31 = trunc i16 %30 to i8
  %32 = getelementptr inbounds nuw i8, ptr %.135, i64 1
  store i8 %31, ptr %.135, align 1, !tbaa !9
  %33 = lshr i16 %30, 8
  %.not = icmp eq i32 %26, 0
  br i1 %.not, label %34, label %25, !llvm.loop !14

34:                                               ; preds = %25
  %.not32 = icmp ult i16 %30, 256
  br i1 %.not32, label %42, label %35

35:                                               ; preds = %34
  %36 = load i32, ptr %0, align 4, !tbaa !4
  %37 = icmp slt i32 %36, 546
  br i1 %37, label %39, label %38

38:                                               ; preds = %35
  tail call void (ptr, i32, ptr, ...) @av_log(ptr noundef null, i32 noundef 0, ptr noundef nonnull @.str, ptr noundef nonnull @.str.1, ptr noundef nonnull @.str.2, i32 noundef 123) #5
  tail call void @abort() #6
  unreachable

39:                                               ; preds = %35
  %40 = add nsw i32 %36, 1
  store i32 %40, ptr %0, align 4, !tbaa !4
  %41 = trunc nuw i16 %33 to i8
  store i8 %41, ptr %32, align 1, !tbaa !9
  br label %42

42:                                               ; preds = %34, %39, %2, %4, %21
  ret void
}